target datalayout = "e-m:e-p270:32:32-p271:32:32-p272:64:64-i64:64-i128:128-f80:128-n8:16:32:64-S128"
target triple = "x86_64-pc-linux-gnu"

%struct._zend_refcounted_h = type { i32, %union.anon.3 }
%union.anon.3 = type { i32 }
%struct.php_file_globals = type { i32, i64, i8, i64, ptr, ptr, ptr, ptr, ptr, ptr, ptr, i32, %struct.hostent, ptr, i64 }
%struct.hostent = type { ptr, ptr, i32, i32, ptr }
%struct._zend_resource = type { %struct._zend_refcounted_h, i64, i32, ptr }
%struct._php_process_handle = type { i32, i32, ptr, ptr, %struct._php_process_env, i32, i8 }
%struct._php_process_env = type { ptr, ptr }
%struct._zend_string = type { %struct._zend_refcounted_h, i64, i64, [1 x i8] }

@file_globals = external global %struct.php_file_globals, align 8

; Function Attrs: alwaysinline nounwind uwtable
define internal i32 @zval_gc_flags(i32 noundef %0) #5 {
  %2 = alloca i32, align 4
  store i32 %0, ptr %2, align 4, !tbaa !4
  %3 = load i32, ptr %2, align 4, !tbaa !4
  %4 = lshr i32 %3, 0
  %5 = and i32 %4, 1008
  ret i32 %5
}

; Function Attrs: alwaysinline nounwind uwtable
define internal void @zend_string_release_ex(ptr noundef %0, i1 noundef zeroext %1) #5 {
  %3 = alloca ptr, align 8
  %4 = alloca i8, align 1
  store ptr %0, ptr %3, align 8, !tbaa !78
  %5 = zext i1 %1 to i8
  store i8 %5, ptr %4, align 1, !tbaa !40
  %6 = load ptr, ptr %3, align 8, !tbaa !78
  %7 = getelementptr inbounds nuw %struct._zend_string, ptr %6, i32 0, i32 0
  %8 = getelementptr inbounds nuw %struct._zend_refcounted_h, ptr %7, i32 0, i32 1
  %9 = load i32, ptr %8, align 4, !tbaa !38
  %10 = call i32 @zval_gc_flags(i32 noundef %9)
  %11 = and i32 %10, 64
  %12 = icmp ne i32 %11, 0
  br i1 %12, label %27, label %13

13:                                               ; preds = %2
  %14 = load ptr, ptr %3, align 8, !tbaa !78
  %15 = getelementptr inbounds nuw %struct._zend_string, ptr %14, i32 0, i32 0
  %16 = call i32 @zend_gc_delref(ptr noundef %15)
  %17 = icmp eq i32 %16, 0
  br i1 %17, label %18, label %26

18:                                               ; preds = %13
  %19 = load i8, ptr %4, align 1, !tbaa !40, !range !41, !noundef !42
  %20 = trunc i8 %19 to i1
  br i1 %20, label %21, label %23

21:                                               ; preds = %18
  %22 = load ptr, ptr %3, align 8, !tbaa !78
  call void @free(ptr noundef %22) #14
  br label %25

23:                                               ; preds = %18
  %24 = load ptr, ptr %3, align 8, !tbaa !78
  call void @_efree(ptr noundef %24)
  br label %25

25:                                               ; preds = %23, %21
  br label %26

26:                                               ; preds = %25, %13
  br label %27

27:                                               ; preds = %26, %2
  ret void
}

; Function Attrs: nounwind uwtable
define internal void @_php_free_envp(ptr %0, ptr %1) #0 {
  %3 = alloca %struct._php_process_env, align 8
  %4 = getelementptr inbounds nuw { ptr, ptr }, ptr %3, i32 0, i32 0
  store ptr %0, ptr %4, align 8
  %5 = getelementptr inbounds nuw { ptr, ptr }, ptr %3, i32 0, i32 1
  store ptr %1, ptr %5, align 8
  %6 = getelementptr inbounds nuw %struct._php_process_env, ptr %3, i32 0, i32 1
  %7 = load ptr, ptr %6, align 8, !tbaa !94
  %8 = icmp ne ptr %7, null
  br i1 %8, label %9, label %12

9:                                                ; preds = %2
  %10 = getelementptr inbounds nuw %struct._php_process_env, ptr %3, i32 0, i32 1
  %11 = load ptr, ptr %10, align 8, !tbaa !94
  call void @_efree(ptr noundef %11)
  br label %12

12:                                               ; preds = %9, %2
  %13 = getelementptr inbounds nuw %struct._php_process_env, ptr %3, i32 0, i32 0
  %14 = load ptr, ptr %13, align 8, !tbaa !125
  %15 = icmp ne ptr %14, null
  br i1 %15, label %16, label %19

16:                                               ; preds = %12
  %17 = getelementptr inbounds nuw %struct._php_process_env, ptr %3, i32 0, i32 0
  %18 = load ptr, ptr %17, align 8, !tbaa !125
  call void @_efree(ptr noundef %18)
  br label %19

19:                                               ; preds = %16, %12
  ret void
}

; Function Attrs: nounwind uwtable
define internal i32 @waitpid_cached(ptr noundef %0, ptr noundef %1, i32 noundef %2) #0 {
  %4 = alloca i32, align 4
  %5 = alloca ptr, align 8
  %6 = alloca ptr, align 8
  %7 = alloca i32, align 4
  %8 = alloca i32, align 4
  store ptr %0, ptr %5, align 8, !tbaa !15
  store ptr %1, ptr %6, align 8, !tbaa !79
  store i32 %2, ptr %7, align 4, !tbaa !4
  %9 = load ptr, ptr %5, align 8, !tbaa !15
  %10 = getelementptr inbounds nuw %struct._php_process_handle, ptr %9, i32 0, i32 6
  %11 = load i8, ptr %10, align 4, !tbaa !77, !range !41, !noundef !42
  %12 = trunc i8 %11 to i1
  br i1 %12, label %13, label %21

13:                                               ; preds = %3
  %14 = load ptr, ptr %5, align 8, !tbaa !15
  %15 = getelementptr inbounds nuw %struct._php_process_handle, ptr %14, i32 0, i32 5
  %16 = load i32, ptr %15, align 8, !tbaa !81
  %17 = load ptr, ptr %6, align 8, !tbaa !79
  store i32 %16, ptr %17, align 4, !tbaa !4
  %18 = load ptr, ptr %5, align 8, !tbaa !15
  %19 = getelementptr inbounds nuw %struct._php_process_handle, ptr %18, i32 0, i32 0
  %20 = load i32, ptr %19, align 8, !tbaa !69
  store i32 %20, ptr %4, align 4
  br label %44

21:                                               ; preds = %3
  call void @llvm.lifetime.start.p0(i64 4, ptr %8) #14
  %22 = load ptr, ptr %5, align 8, !tbaa !15
  %23 = getelementptr inbounds nuw %struct._php_process_handle, ptr %22, i32 0, i32 0
  %24 = load i32, ptr %23, align 8, !tbaa !69
  %25 = load ptr, ptr %6, align 8, !tbaa !79
  %26 = load i32, ptr %7, align 4, !tbaa !4
  %27 = call i32 @waitpid(i32 noundef %24, ptr noundef %25, i32 noundef %26)
  store i32 %27, ptr %8, align 4, !tbaa !4
  %28 = load i32, ptr %8, align 4, !tbaa !4
  %29 = icmp sgt i32 %28, 0
  br i1 %29, label %30, label %42

30:                                               ; preds = %21
  %31 = load ptr, ptr %6, align 8, !tbaa !79
  %32 = load i32, ptr %31, align 4, !tbaa !4
  %33 = and i32 %32, 127
  %34 = icmp eq i32 %33, 0
  br i1 %34, label %35, label %42

35:                                               ; preds = %30
  %36 = load ptr, ptr %5, align 8, !tbaa !15
  %37 = getelementptr inbounds nuw %struct._php_process_handle, ptr %36, i32 0, i32 6
  store i8 1, ptr %37, align 4, !tbaa !77
  %38 = load ptr, ptr %6, align 8, !tbaa !79
  %39 = load i32, ptr %38, align 4, !tbaa !4
  %40 = load ptr, ptr %5, align 8, !tbaa !15
  %41 = getelementptr inbounds nuw %struct._php_process_handle, ptr %40, i32 0, i32 5
  store i32 %39, ptr %41, align 8, !tbaa !81
  br label %42

42:                                               ; preds = %35, %30, %21
  %43 = load i32, ptr %8, align 4, !tbaa !4
  store i32 %43, ptr %4, align 4
  call void @llvm.lifetime.end.p0(i64 4, ptr %8) #14
  br label %44

44:                                               ; preds = %42, %13
  %45 = load i32, ptr %4, align 4
  ret i32 %45
}

; Function Attrs: alwaysinline nounwind uwtable
define internal i32 @zend_gc_delref(ptr noundef %0) #5 {
  %2 = alloca ptr, align 8
  store ptr %0, ptr %2, align 8, !tbaa !127
  %3 = load ptr, ptr %2, align 8, !tbaa !127
  %4 = getelementptr inbounds nuw %struct._zend_refcounted_h, ptr %3, i32 0, i32 0
  %5 = load i32, ptr %4, align 4, !tbaa !129
  %6 = icmp ugt i32 %5, 0
  call void @llvm.assume(i1 %6)
  br label %7

7:                                                ; preds = %1
  br label %8

8:                                                ; preds = %7
  %9 = load ptr, ptr %2, align 8, !tbaa !127
  %10 = getelementptr inbounds nuw %struct._zend_refcounted_h, ptr %9, i32 0, i32 0
  %11 = load i32, ptr %10, align 4, !tbaa !129
  %12 = add i32 %11, -1
  store i32 %12, ptr %10, align 4, !tbaa !129
  ret i32 %12
}

; Function Attrs: nounwind uwtable
define internal void @proc_open_rsrc_dtor(ptr noundef %0) #0 {
  %2 = alloca ptr, align 8
  %3 = alloca ptr, align 8
  %4 = alloca i32, align 4
  %5 = alloca i32, align 4
  %6 = alloca i32, align 4
  %7 = alloca i32, align 4
  store ptr %0, ptr %2, align 8, !tbaa !8
  call void @llvm.lifetime.start.p0(i64 8, ptr %3) #14
  %8 = load ptr, ptr %2, align 8, !tbaa !8
  %9 = getelementptr inbounds nuw %struct._zend_resource, ptr %8, i32 0, i32 3
  %10 = load ptr, ptr %9, align 8, !tbaa !11
  store ptr %10, ptr %3, align 8, !tbaa !15
  call void @llvm.lifetime.start.p0(i64 4, ptr %4) #14
  call void @llvm.lifetime.start.p0(i64 4, ptr %5) #14
  store i32 0, ptr %5, align 4, !tbaa !4
  call void @llvm.lifetime.start.p0(i64 4, ptr %6) #14
  call void @llvm.lifetime.start.p0(i64 4, ptr %7) #14
  store i32 0, ptr %7, align 4, !tbaa !4
  br label %11

11:                                               ; preds = %51, %1
  %12 = load i32, ptr %7, align 4, !tbaa !4
  %13 = load ptr, ptr %3, align 8, !tbaa !15
  %14 = getelementptr inbounds nuw %struct._php_process_handle, ptr %13, i32 0, i32 1
  %15 = load i32, ptr %14, align 4, !tbaa !17
  %16 = icmp slt i32 %12, %15
  br i1 %16, label %18, label %17

17:                                               ; preds = %11
  call void @llvm.lifetime.end.p0(i64 4, ptr %7) #14
  br label %54

18:                                               ; preds = %11
  %19 = load ptr, ptr %3, align 8, !tbaa !15
  %20 = getelementptr inbounds nuw %struct._php_process_handle, ptr %19, i32 0, i32 2
  %21 = load ptr, ptr %20, align 8, !tbaa !25
  %22 = load i32, ptr %7, align 4, !tbaa !4
  %23 = sext i32 %22 to i64
  %24 = getelementptr inbounds ptr, ptr %21, i64 %23
  %25 = load ptr, ptr %24, align 8, !tbaa !8
  %26 = icmp ne ptr %25, null
  br i1 %26, label %27, label %50

27:                                               ; preds = %18
  %28 = load ptr, ptr %3, align 8, !tbaa !15
  %29 = getelementptr inbounds nuw %struct._php_process_handle, ptr %28, i32 0, i32 2
  %30 = load ptr, ptr %29, align 8, !tbaa !25
  %31 = load i32, ptr %7, align 4, !tbaa !4
  %32 = sext i32 %31 to i64
  %33 = getelementptr inbounds ptr, ptr %30, i64 %32
  %34 = load ptr, ptr %33, align 8, !tbaa !8
  %35 = getelementptr inbounds nuw %struct._zend_resource, ptr %34, i32 0, i32 0
  %36 = call i32 @zend_gc_delref(ptr noundef %35)
  %37 = load ptr, ptr %3, align 8, !tbaa !15
  %38 = getelementptr inbounds nuw %struct._php_process_handle, ptr %37, i32 0, i32 2
  %39 = load ptr, ptr %38, align 8, !tbaa !25
  %40 = load i32, ptr %7, align 4, !tbaa !4
  %41 = sext i32 %40 to i64
  %42 = getelementptr inbounds ptr, ptr %39, i64 %41
  %43 = load ptr, ptr %42, align 8, !tbaa !8
  call void @zend_list_close(ptr noundef %43)
  %44 = load ptr, ptr %3, align 8, !tbaa !15
  %45 = getelementptr inbounds nuw %struct._php_process_handle, ptr %44, i32 0, i32 2
  %46 = load ptr, ptr %45, align 8, !tbaa !25
  %47 = load i32, ptr %7, align 4, !tbaa !4
  %48 = sext i32 %47 to i64
  %49 = getelementptr inbounds ptr, ptr %46, i64 %48
  store ptr null, ptr %49, align 8, !tbaa !8
  br label %50

50:                                               ; preds = %27, %18
  br label %51

51:                                               ; preds = %50
  %52 = load i32, ptr %7, align 4, !tbaa !4
  %53 = add nsw i32 %52, 1
  store i32 %53, ptr %7, align 4, !tbaa !4
  br label %11

54:                                               ; preds = %17
  %55 = load i32, ptr getelementptr inbounds nuw (%struct.php_file_globals, ptr @file_globals, i32 0, i32 11), align 8, !tbaa !26
  %56 = icmp ne i32 %55, 0
  br i1 %56, label %58, label %57

57:                                               ; preds = %54
  store i32 1, ptr %5, align 4, !tbaa !4
  br label %58

58:                                               ; preds = %57, %54
  br label %59

59:                                               ; preds = %70, %58
  %60 = load ptr, ptr %3, align 8, !tbaa !15
  %61 = load i32, ptr %5, align 4, !tbaa !4
  %62 = call i32 @waitpid_cached(ptr noundef %60, ptr noundef %4, i32 noundef %61)
  store i32 %62, ptr %6, align 4, !tbaa !4
  br label %63

63:                                               ; preds = %59
  %64 = load i32, ptr %6, align 4, !tbaa !4
  %65 = icmp eq i32 %64, -1
  br i1 %65, label %66, label %70

66:                                               ; preds = %63
  %67 = call ptr @__errno_location() #15
  %68 = load i32, ptr %67, align 4, !tbaa !4
  %69 = icmp eq i32 %68, 4
  br label %70

70:                                               ; preds = %66, %63
  %71 = phi i1 [ false, %63 ], [ %69, %66 ]
  br i1 %71, label %59, label %72

72:                                               ; preds = %70
  %73 = load i32, ptr %6, align 4, !tbaa !4
  %74 = icmp sle i32 %73, 0
  br i1 %74, label %75, label %76

75:                                               ; preds = %72
  store i32 -1, ptr @file_globals, align 8, !tbaa !31
  br label %86

76:                                               ; preds = %72
  %77 = load i32, ptr %4, align 4, !tbaa !4
  %78 = and i32 %77, 127
  %79 = icmp eq i32 %78, 0
  br i1 %79, label %80, label %84

80:                                               ; preds = %76
  %81 = load i32, ptr %4, align 4, !tbaa !4
  %82 = and i32 %81, 65280
  %83 = ashr i32 %82, 8
  store i32 %83, ptr %4, align 4, !tbaa !4
  br label %84

84:                                               ; preds = %80, %76
  %85 = load i32, ptr %4, align 4, !tbaa !4
  store i32 %85, ptr @file_globals, align 8, !tbaa !31
  br label %86

86:                                               ; preds = %84, %75
  %87 = load ptr, ptr %3, align 8, !tbaa !15
  %88 = getelementptr inbounds nuw %struct._php_process_handle, ptr %87, i32 0, i32 4
  %89 = getelementptr inbounds nuw { ptr, ptr }, ptr %88, i32 0, i32 0
  %90 = load ptr, ptr %89, align 8
  %91 = getelementptr inbounds nuw { ptr, ptr }, ptr %88, i32 0, i32 1
  %92 = load ptr, ptr %91, align 8
  call void @_php_free_envp(ptr %90, ptr %92)
  %93 = load ptr, ptr %3, align 8, !tbaa !15
  %94 = getelementptr inbounds nuw %struct._php_process_handle, ptr %93, i32 0, i32 2
  %95 = load ptr, ptr %94, align 8, !tbaa !25
  call void @_efree(ptr noundef %95)
  %96 = load ptr, ptr %3, align 8, !tbaa !15
  %97 = getelementptr inbounds nuw %struct._php_process_handle, ptr %96, i32 0, i32 3
  %98 = load ptr, ptr %97, align 8, !tbaa !32
  call void @zend_string_release_ex(ptr noundef %98, i1 noundef zeroext false)
  %99 = load ptr, ptr %3, align 8, !tbaa !15
  call void @_efree(ptr noundef %99)
  call void @llvm.lifetime.end.p0(i64 4, ptr %6) #14
  call void @llvm.lifetime.end.p0(i64 4, ptr %5) #14
  call void @llvm.lifetime.end.p0(i64 4, ptr %4) #14
  call void @llvm.lifetime.end.p0(i64 8, ptr %3) #14
  ret void
}