; Function Attrs: nounwind uwtable
define internal void @proc_open_rsrc_dtor(ptr noundef readonly captures(none) %0) #0 {
  %2 = alloca i32, align 4
  %3 = getelementptr inbounds nuw i8, ptr %0, i64 24
  %4 = load ptr, ptr %3, align 8, !tbaa !8
  call void @llvm.lifetime.start.p0(i64 4, ptr nonnull %2) #13
  %5 = getelementptr inbounds nuw i8, ptr %4, i64 4
  %6 = load i32, ptr %5, align 4, !tbaa !13
  %7 = icmp sgt i32 %6, 0
  br i1 %7, label %.lr.ph, label %._crit_edge

.lr.ph:                                           ; preds = %1
  %8 = getelementptr inbounds nuw i8, ptr %4, i64 8
  %.pre = load ptr, ptr %8, align 8, !tbaa !21
  br label %19

._crit_edge:                                      ; preds = %30, %1
  %9 = load i32, ptr getelementptr inbounds nuw (i8, ptr @file_globals, i64 88), align 8, !tbaa !22
  %.not = icmp eq i32 %9, 0
  %spec.select = zext i1 %.not to i32
  %10 = getelementptr inbounds nuw i8, ptr %4, i64 44
  %11 = getelementptr inbounds nuw i8, ptr %4, i64 40
  %12 = load i8, ptr %10, align 4, !tbaa !27, !range !28, !noundef !29
  %13 = trunc nuw i8 %12 to i1
  br i1 %13, label %waitpid_cached.exit.us.preheader, label %.split

waitpid_cached.exit.us.preheader:                 ; preds = %._crit_edge
  %.pre38 = load i32, ptr %11, align 8, !tbaa !30
  %.pre39 = load i32, ptr %4, align 8, !tbaa !31
  %14 = icmp eq i32 %.pre39, -1
  br label %waitpid_cached.exit.us

waitpid_cached.exit.us:                           ; preds = %waitpid_cached.exit.us.preheader, %15
  store i32 %.pre38, ptr %2, align 4, !tbaa !4
  br i1 %14, label %15, label %.critedge

15:                                               ; preds = %waitpid_cached.exit.us
  %16 = tail call ptr @__errno_location() #14
  %17 = load i32, ptr %16, align 4, !tbaa !4
  %18 = icmp eq i32 %17, 4
  br i1 %18, label %waitpid_cached.exit.us, label %.critedge.thread

19:                                               ; preds = %.lr.ph, %30
  %20 = phi i32 [ %6, %.lr.ph ], [ %31, %30 ]
  %21 = phi ptr [ %.pre, %.lr.ph ], [ %32, %30 ]
  %indvars.iv = phi i64 [ 0, %.lr.ph ], [ %indvars.iv.next, %30 ]
  %22 = getelementptr inbounds nuw ptr, ptr %21, i64 %indvars.iv
  %23 = load ptr, ptr %22, align 8, !tbaa !32
  %.not21 = icmp eq ptr %23, null
  br i1 %.not21, label %30, label %24

24:                                               ; preds = %19
  %25 = load i32, ptr %23, align 4, !tbaa !34
  %26 = icmp ne i32 %25, 0
  tail call void @llvm.assume(i1 %26)
  %27 = add i32 %25, -1
  store i32 %27, ptr %23, align 4, !tbaa !34
  tail call void @zend_list_close(ptr noundef nonnull %23) #13
  %28 = load ptr, ptr %8, align 8, !tbaa !21
  %29 = getelementptr inbounds nuw ptr, ptr %28, i64 %indvars.iv
  store ptr null, ptr %29, align 8, !tbaa !32
  %.pre37 = load i32, ptr %5, align 4, !tbaa !13
  br label %30

30:                                               ; preds = %19, %24
  %31 = phi i32 [ %20, %19 ], [ %.pre37, %24 ]
  %32 = phi ptr [ %21, %19 ], [ %28, %24 ]
  %indvars.iv.next = add nuw nsw i64 %indvars.iv, 1
  %33 = sext i32 %31 to i64
  %34 = icmp slt i64 %indvars.iv.next, %33
  br i1 %34, label %19, label %._crit_edge

.split:                                           ; preds = %._crit_edge, %50
  %35 = load i8, ptr %10, align 4, !tbaa !27, !range !28, !noundef !29
  %36 = trunc nuw i8 %35 to i1
  br i1 %36, label %37, label %40

37:                                               ; preds = %.split
  %38 = load i32, ptr %11, align 8, !tbaa !30
  store i32 %38, ptr %2, align 4, !tbaa !4
  %39 = load i32, ptr %4, align 8, !tbaa !31
  br label %waitpid_cached.exit

40:                                               ; preds = %.split
  %41 = load i32, ptr %4, align 8, !tbaa !31
  %42 = call i32 @waitpid(i32 noundef %41, ptr noundef nonnull %2, i32 noundef range(i32 0, 4) %spec.select) #13
  %43 = icmp sgt i32 %42, 0
  br i1 %43, label %44, label %waitpid_cached.exit

44:                                               ; preds = %40
  %45 = load i32, ptr %2, align 4, !tbaa !4
  %46 = and i32 %45, 127
  %47 = icmp eq i32 %46, 0
  br i1 %47, label %48, label %.critedge.thread26

48:                                               ; preds = %44
  store i8 1, ptr %10, align 4, !tbaa !27
  store i32 %45, ptr %11, align 8, !tbaa !30
  br label %.critedge.thread26

waitpid_cached.exit:                              ; preds = %37, %40
  %.0.i = phi i32 [ %39, %37 ], [ %42, %40 ]
  %49 = icmp eq i32 %.0.i, -1
  br i1 %49, label %50, label %.critedge

50:                                               ; preds = %waitpid_cached.exit
  %51 = tail call ptr @__errno_location() #14
  %52 = load i32, ptr %51, align 4, !tbaa !4
  %53 = icmp eq i32 %52, 4
  br i1 %53, label %.split, label %.critedge.thread, !llvm.loop !35

.critedge:                                        ; preds = %waitpid_cached.exit, %waitpid_cached.exit.us
  %.us-phi = phi i32 [ %.pre39, %waitpid_cached.exit.us ], [ %.0.i, %waitpid_cached.exit ]
  %54 = icmp slt i32 %.us-phi, 1
  br i1 %54, label %.critedge.thread, label %.critedge..critedge.thread26_crit_edge

.critedge..critedge.thread26_crit_edge:           ; preds = %.critedge
  %.pre40 = load i32, ptr %2, align 4, !tbaa !4
  br label %.critedge.thread26

.critedge.thread26:                               ; preds = %.critedge..critedge.thread26_crit_edge, %48, %44
  %55 = phi i32 [ %.pre40, %.critedge..critedge.thread26_crit_edge ], [ %45, %48 ], [ %45, %44 ]
  %56 = and i32 %55, 127
  %57 = icmp eq i32 %56, 0
  br i1 %57, label %58, label %.critedge.thread

58:                                               ; preds = %.critedge.thread26
  %59 = lshr i32 %55, 8
  %60 = and i32 %59, 255
  store i32 %60, ptr %2, align 4, !tbaa !4
  br label %.critedge.thread

.critedge.thread:                                 ; preds = %50, %15, %.critedge.thread26, %58, %.critedge
  %storemerge = phi i32 [ -1, %.critedge ], [ %60, %58 ], [ %55, %.critedge.thread26 ], [ -1, %15 ], [ -1, %50 ]
  store i32 %storemerge, ptr @file_globals, align 8, !tbaa !37
  %61 = getelementptr inbounds nuw i8, ptr %4, i64 24
  %62 = load ptr, ptr %61, align 8
  %63 = getelementptr inbounds nuw i8, ptr %4, i64 32
  %64 = load ptr, ptr %63, align 8
  %.not.i22 = icmp eq ptr %64, null
  br i1 %.not.i22, label %66, label %65

65:                                               ; preds = %.critedge.thread
  call void @_efree(ptr noundef nonnull %64) #13
  br label %66

66:                                               ; preds = %65, %.critedge.thread
  %.not4.i = icmp eq ptr %62, null
  br i1 %.not4.i, label %_php_free_envp.exit, label %67

67:                                               ; preds = %66
  call void @_efree(ptr noundef nonnull %62) #13
  br label %_php_free_envp.exit

_php_free_envp.exit:                              ; preds = %66, %67
  %68 = getelementptr inbounds nuw i8, ptr %4, i64 8
  %69 = load ptr, ptr %68, align 8, !tbaa !21
  call void @_efree(ptr noundef %69) #13
  %70 = getelementptr inbounds nuw i8, ptr %4, i64 16
  %71 = load ptr, ptr %70, align 8, !tbaa !38
  %72 = getelementptr inbounds nuw i8, ptr %71, i64 4
  %73 = load i32, ptr %72, align 4, !tbaa !39
  %74 = and i32 %73, 64
  %.not.i = icmp eq i32 %74, 0
  br i1 %.not.i, label %75, label %zend_string_release_ex.exit

75:                                               ; preds = %_php_free_envp.exit
  %76 = load i32, ptr %71, align 4, !tbaa !34
  %77 = icmp ne i32 %76, 0
  call void @llvm.assume(i1 %77)
  %78 = add i32 %76, -1
  store i32 %78, ptr %71, align 4, !tbaa !34
  %79 = icmp eq i32 %78, 0
  br i1 %79, label %80, label %zend_string_release_ex.exit

80:                                               ; preds = %75
  call void @_efree(ptr noundef nonnull %71) #13
  br label %zend_string_release_ex.exit

zend_string_release_ex.exit:                      ; preds = %_php_free_envp.exit, %75, %80
  call void @_efree(ptr noundef nonnull %4) #13
  call void @llvm.lifetime.end.p0(i64 4, ptr nonnull %2) #13
  ret void
}